target datalayout = "e-m:e-p270:32:32-p271:32:32-p272:64:64-i64:64-i128:128-f80:128-n8:16:32:64-S128"
target triple = "x86_64-pc-linux-gnu"

%struct._zend_ini_entry = type { ptr, ptr, ptr, ptr, ptr, ptr, ptr, ptr, i32, i8, i8, i8 }

@.str.46 = private unnamed_addr constant [70 x i8] c"zend.assertions may be completely enabled or disabled only in php.ini\00", align 1

; Function Attrs: nounwind uwtable
define internal i32 @OnUpdateAssertions(ptr noundef %0, ptr noundef %1, ptr noundef %2, ptr noundef %3, ptr noundef %4, i32 noundef %5) #0 {
  %7 = alloca i32, align 4
  %8 = alloca ptr, align 8
  %9 = alloca ptr, align 8
  %10 = alloca ptr, align 8
  %11 = alloca ptr, align 8
  %12 = alloca ptr, align 8
  %13 = alloca i32, align 4
  %14 = alloca ptr, align 8
  %15 = alloca i64, align 8
  store ptr %0, ptr %8, align 8
  store ptr %1, ptr %9, align 8
  store ptr %2, ptr %10, align 8
  store ptr %3, ptr %11, align 8
  store ptr %4, ptr %12, align 8
  store i32 %5, ptr %13, align 4
  %16 = load ptr, ptr %11, align 8
  %17 = load ptr, ptr %10, align 8
  %18 = ptrtoint ptr %17 to i64
  %19 = getelementptr inbounds i8, ptr %16, i64 %18
  store ptr %19, ptr %14, align 8
  %20 = load ptr, ptr %9, align 8
  %21 = load ptr, ptr %8, align 8
  %22 = getelementptr inbounds %struct._zend_ini_entry, ptr %21, i32 0, i32 0
  %23 = load ptr, ptr %22, align 8
  %24 = call i64 @zend_ini_parse_quantity_warn(ptr noundef %20, ptr noundef %23)
  store i64 %24, ptr %15, align 8
  %25 = load i32, ptr %13, align 4
  %26 = icmp ne i32 %25, 1
  br i1 %26, label %27, label %43

27:                                               ; preds = %6
  %28 = load i32, ptr %13, align 4
  %29 = icmp ne i32 %28, 2
  br i1 %29, label %30, label %43

30:                                               ; preds = %27
  %31 = load ptr, ptr %14, align 8
  %32 = load i64, ptr %31, align 8
  %33 = load i64, ptr %15, align 8
  %34 = icmp ne i64 %32, %33
  br i1 %34, label %35, label %43

35:                                               ; preds = %30
  %36 = load ptr, ptr %14, align 8
  %37 = load i64, ptr %36, align 8
  %38 = icmp slt i64 %37, 0
  br i1 %38, label %42, label %39

39:                                               ; preds = %35
  %40 = load i64, ptr %15, align 8
  %41 = icmp slt i64 %40, 0
  br i1 %41, label %42, label %43

42:                                               ; preds = %39, %35
  call void (i32, ptr, ...) @zend_error(i32 noundef 2, ptr noundef @.str.46)
  store i32 -1, ptr %7, align 4
  br label %46

43:                                               ; preds = %39, %30, %27, %6
  %44 = load i64, ptr %15, align 8
  %45 = load ptr, ptr %14, align 8
  store i64 %44, ptr %45, align 8
  store i32 0, ptr %7, align 4
  br label %46

46:                                               ; preds = %43, %42
  %47 = load i32, ptr %7, align 4
  ret i32 %47
}