; Function Attrs: nounwind uwtable
define internal noundef i32 @OnUpdateAssertions(ptr nocapture noundef readonly %0, ptr noundef %1, ptr noundef %2, ptr nocapture noundef %3, ptr nocapture readnone %4, i32 noundef %5) #0 {
  %7 = ptrtoint ptr %2 to i64
  %8 = getelementptr inbounds i8, ptr %3, i64 %7
  %9 = load ptr, ptr %0, align 8
  %10 = tail call i64 @zend_ini_parse_quantity_warn(ptr noundef %1, ptr noundef %9) #30
  %11 = add i32 %5, -3
  %or.cond = icmp ult i32 %11, -2
  br i1 %or.cond, label %12, label %18

12:                                               ; preds = %6
  %13 = load i64, ptr %8, align 8
  %.not = icmp eq i64 %13, %10
  br i1 %.not, label %18, label %14

14:                                               ; preds = %12
  %15 = icmp slt i64 %13, 0
  %16 = icmp slt i64 %10, 0
  %or.cond3 = select i1 %15, i1 true, i1 %16
  br i1 %or.cond3, label %17, label %18

17:                                               ; preds = %14
  tail call void (i32, ptr, ...) @zend_error(i32 noundef 2, ptr noundef nonnull @.str.46)
  br label %19

18:                                               ; preds = %14, %12, %6
  store i64 %10, ptr %8, align 8
  br label %19

19:                                               ; preds = %18, %17
  %.0 = phi i32 [ -1, %17 ], [ 0, %18 ]
  ret i32 %.0
}